target datalayout = "e-m:e-p270:32:32-p271:32:32-p272:64:64-i64:64-i128:128-f80:128-n8:16:32:64-S128"
target triple = "x86_64-pc-linux-gnu"

%struct.Odc_Man_t_ = type { i32, i32, i32, i32, i32, i32, ptr, ptr, ptr, ptr, i32, i32, i32, ptr, i16, i16, ptr, i32, ptr, i32, i32, ptr, ptr, ptr, i32, i32, i32, i32, i32, i32, i64, i64, i64, i64, i64, i64, i64, i64 }
%struct.Vec_Ptr_t_ = type { i32, i32, ptr }
%struct.Vec_Int_t_ = type { i32, i32, ptr }

@.str = private unnamed_addr constant [78 x i8] c"Wins = %5d. Empty = %5d. SimsEmpty = %5d. QuantOver = %5d. WinsFinish = %5d.\0A\00", align 1
@.str.1 = private unnamed_addr constant [72 x i8] c"Ave DCs per window = %6.2f %%. Ave DCs per finished window = %6.2f %%.\0A\00", align 1
@.str.2 = private unnamed_addr constant [35 x i8] c"Runtime stats of the ODC manager:\0A\00", align 1
@.str.3 = private unnamed_addr constant [5 x i8] c"%s =\00", align 1
@.str.4 = private unnamed_addr constant [13 x i8] c"Cleaning    \00", align 1
@.str.5 = private unnamed_addr constant [11 x i8] c"%9.2f sec\0A\00", align 1
@.str.6 = private unnamed_addr constant [13 x i8] c"Windowing   \00", align 1
@.str.7 = private unnamed_addr constant [13 x i8] c"Miter       \00", align 1
@.str.8 = private unnamed_addr constant [13 x i8] c"Simulation  \00", align 1
@.str.9 = private unnamed_addr constant [13 x i8] c"Quantifying \00", align 1
@.str.10 = private unnamed_addr constant [13 x i8] c"Truth table \00", align 1
@.str.11 = private unnamed_addr constant [13 x i8] c"TOTAL       \00", align 1
@.str.12 = private unnamed_addr constant [13 x i8] c"Aborted     \00", align 1

; Function Attrs: inlinehint nounwind uwtable
define internal void @Vec_IntFree(ptr noundef %0) #5 {
  %2 = alloca ptr, align 8
  store ptr %0, ptr %2, align 8, !tbaa !52
  %3 = load ptr, ptr %2, align 8, !tbaa !52
  %4 = getelementptr inbounds nuw %struct.Vec_Int_t_, ptr %3, i32 0, i32 2
  %5 = load ptr, ptr %4, align 8, !tbaa !56
  %6 = icmp ne ptr %5, null
  br i1 %6, label %7, label %13

7:                                                ; preds = %1
  %8 = load ptr, ptr %2, align 8, !tbaa !52
  %9 = getelementptr inbounds nuw %struct.Vec_Int_t_, ptr %8, i32 0, i32 2
  %10 = load ptr, ptr %9, align 8, !tbaa !56
  call void @free(ptr noundef %10) #10
  %11 = load ptr, ptr %2, align 8, !tbaa !52
  %12 = getelementptr inbounds nuw %struct.Vec_Int_t_, ptr %11, i32 0, i32 2
  store ptr null, ptr %12, align 8, !tbaa !56
  br label %14

13:                                               ; preds = %1
  br label %14

14:                                               ; preds = %13, %7
  %15 = load ptr, ptr %2, align 8, !tbaa !52
  %16 = icmp ne ptr %15, null
  br i1 %16, label %17, label %19

17:                                               ; preds = %14
  %18 = load ptr, ptr %2, align 8, !tbaa !52
  call void @free(ptr noundef %18) #10
  store ptr null, ptr %2, align 8, !tbaa !52
  br label %20

19:                                               ; preds = %14
  br label %20

20:                                               ; preds = %19, %17
  ret void
}

; Function Attrs: inlinehint nounwind uwtable
define internal void @Vec_PtrFree(ptr noundef %0) #5 {
  %2 = alloca ptr, align 8
  store ptr %0, ptr %2, align 8, !tbaa !47
  %3 = load ptr, ptr %2, align 8, !tbaa !47
  %4 = getelementptr inbounds nuw %struct.Vec_Ptr_t_, ptr %3, i32 0, i32 2
  %5 = load ptr, ptr %4, align 8, !tbaa !51
  %6 = icmp ne ptr %5, null
  br i1 %6, label %7, label %13

7:                                                ; preds = %1
  %8 = load ptr, ptr %2, align 8, !tbaa !47
  %9 = getelementptr inbounds nuw %struct.Vec_Ptr_t_, ptr %8, i32 0, i32 2
  %10 = load ptr, ptr %9, align 8, !tbaa !51
  call void @free(ptr noundef %10) #10
  %11 = load ptr, ptr %2, align 8, !tbaa !47
  %12 = getelementptr inbounds nuw %struct.Vec_Ptr_t_, ptr %11, i32 0, i32 2
  store ptr null, ptr %12, align 8, !tbaa !51
  br label %14

13:                                               ; preds = %1
  br label %14

14:                                               ; preds = %13, %7
  %15 = load ptr, ptr %2, align 8, !tbaa !47
  %16 = icmp ne ptr %15, null
  br i1 %16, label %17, label %19

17:                                               ; preds = %14
  %18 = load ptr, ptr %2, align 8, !tbaa !47
  call void @free(ptr noundef %18) #10
  store ptr null, ptr %2, align 8, !tbaa !47
  br label %20

19:                                               ; preds = %14
  br label %20

20:                                               ; preds = %19, %17
  ret void
}

; Function Attrs: nounwind uwtable
define void @Abc_NtkDontCareFree(ptr noundef %0) #0 {
  %2 = alloca ptr, align 8
  store ptr %0, ptr %2, align 8, !tbaa !7
  %3 = load ptr, ptr %2, align 8, !tbaa !7
  %4 = getelementptr inbounds nuw %struct.Odc_Man_t_, ptr %3, i32 0, i32 2
  %5 = load i32, ptr %4, align 8, !tbaa !21
  %6 = icmp ne i32 %5, 0
  br i1 %6, label %7, label %94

7:                                                ; preds = %1
  %8 = load ptr, ptr %2, align 8, !tbaa !7
  %9 = getelementptr inbounds nuw %struct.Odc_Man_t_, ptr %8, i32 0, i32 24
  %10 = load i32, ptr %9, align 8, !tbaa !64
  %11 = load ptr, ptr %2, align 8, !tbaa !7
  %12 = getelementptr inbounds nuw %struct.Odc_Man_t_, ptr %11, i32 0, i32 25
  %13 = load i32, ptr %12, align 4, !tbaa !65
  %14 = load ptr, ptr %2, align 8, !tbaa !7
  %15 = getelementptr inbounds nuw %struct.Odc_Man_t_, ptr %14, i32 0, i32 26
  %16 = load i32, ptr %15, align 8, !tbaa !66
  %17 = load ptr, ptr %2, align 8, !tbaa !7
  %18 = getelementptr inbounds nuw %struct.Odc_Man_t_, ptr %17, i32 0, i32 27
  %19 = load i32, ptr %18, align 4, !tbaa !67
  %20 = load ptr, ptr %2, align 8, !tbaa !7
  %21 = getelementptr inbounds nuw %struct.Odc_Man_t_, ptr %20, i32 0, i32 28
  %22 = load i32, ptr %21, align 8, !tbaa !68
  %23 = call i32 (ptr, ...) @printf(ptr noundef @.str, i32 noundef %10, i32 noundef %13, i32 noundef %16, i32 noundef %19, i32 noundef %22)
  %24 = load ptr, ptr %2, align 8, !tbaa !7
  %25 = getelementptr inbounds nuw %struct.Odc_Man_t_, ptr %24, i32 0, i32 29
  %26 = load i32, ptr %25, align 4, !tbaa !69
  %27 = sitofp i32 %26 to double
  %28 = fmul double 1.000000e+00, %27
  %29 = load ptr, ptr %2, align 8, !tbaa !7
  %30 = getelementptr inbounds nuw %struct.Odc_Man_t_, ptr %29, i32 0, i32 24
  %31 = load i32, ptr %30, align 8, !tbaa !64
  %32 = sitofp i32 %31 to double
  %33 = fdiv double %28, %32
  %34 = load ptr, ptr %2, align 8, !tbaa !7
  %35 = getelementptr inbounds nuw %struct.Odc_Man_t_, ptr %34, i32 0, i32 29
  %36 = load i32, ptr %35, align 4, !tbaa !69
  %37 = sitofp i32 %36 to double
  %38 = fmul double 1.000000e+00, %37
  %39 = load ptr, ptr %2, align 8, !tbaa !7
  %40 = getelementptr inbounds nuw %struct.Odc_Man_t_, ptr %39, i32 0, i32 28
  %41 = load i32, ptr %40, align 8, !tbaa !68
  %42 = sitofp i32 %41 to double
  %43 = fdiv double %38, %42
  %44 = call i32 (ptr, ...) @printf(ptr noundef @.str.1, double noundef %33, double noundef %43)
  %45 = call i32 (ptr, ...) @printf(ptr noundef @.str.2)
  call void (i32, ptr, ...) @Abc_Print(i32 noundef 1, ptr noundef @.str.3, ptr noundef @.str.4)
  %46 = load ptr, ptr %2, align 8, !tbaa !7
  %47 = getelementptr inbounds nuw %struct.Odc_Man_t_, ptr %46, i32 0, i32 30
  %48 = load i64, ptr %47, align 8, !tbaa !63
  %49 = sitofp i64 %48 to double
  %50 = fmul double 1.000000e+00, %49
  %51 = fdiv double %50, 1.000000e+06
  call void (i32, ptr, ...) @Abc_Print(i32 noundef 1, ptr noundef @.str.5, double noundef %51)
  call void (i32, ptr, ...) @Abc_Print(i32 noundef 1, ptr noundef @.str.3, ptr noundef @.str.6)
  %52 = load ptr, ptr %2, align 8, !tbaa !7
  %53 = getelementptr inbounds nuw %struct.Odc_Man_t_, ptr %52, i32 0, i32 31
  %54 = load i64, ptr %53, align 8, !tbaa !70
  %55 = sitofp i64 %54 to double
  %56 = fmul double 1.000000e+00, %55
  %57 = fdiv double %56, 1.000000e+06
  call void (i32, ptr, ...) @Abc_Print(i32 noundef 1, ptr noundef @.str.5, double noundef %57)
  call void (i32, ptr, ...) @Abc_Print(i32 noundef 1, ptr noundef @.str.3, ptr noundef @.str.7)
  %58 = load ptr, ptr %2, align 8, !tbaa !7
  %59 = getelementptr inbounds nuw %struct.Odc_Man_t_, ptr %58, i32 0, i32 32
  %60 = load i64, ptr %59, align 8, !tbaa !71
  %61 = sitofp i64 %60 to double
  %62 = fmul double 1.000000e+00, %61
  %63 = fdiv double %62, 1.000000e+06
  call void (i32, ptr, ...) @Abc_Print(i32 noundef 1, ptr noundef @.str.5, double noundef %63)
  call void (i32, ptr, ...) @Abc_Print(i32 noundef 1, ptr noundef @.str.3, ptr noundef @.str.8)
  %64 = load ptr, ptr %2, align 8, !tbaa !7
  %65 = getelementptr inbounds nuw %struct.Odc_Man_t_, ptr %64, i32 0, i32 33
  %66 = load i64, ptr %65, align 8, !tbaa !72
  %67 = sitofp i64 %66 to double
  %68 = fmul double 1.000000e+00, %67
  %69 = fdiv double %68, 1.000000e+06
  call void (i32, ptr, ...) @Abc_Print(i32 noundef 1, ptr noundef @.str.5, double noundef %69)
  call void (i32, ptr, ...) @Abc_Print(i32 noundef 1, ptr noundef @.str.3, ptr noundef @.str.9)
  %70 = load ptr, ptr %2, align 8, !tbaa !7
  %71 = getelementptr inbounds nuw %struct.Odc_Man_t_, ptr %70, i32 0, i32 34
  %72 = load i64, ptr %71, align 8, !tbaa !73
  %73 = sitofp i64 %72 to double
  %74 = fmul double 1.000000e+00, %73
  %75 = fdiv double %74, 1.000000e+06
  call void (i32, ptr, ...) @Abc_Print(i32 noundef 1, ptr noundef @.str.5, double noundef %75)
  call void (i32, ptr, ...) @Abc_Print(i32 noundef 1, ptr noundef @.str.3, ptr noundef @.str.10)
  %76 = load ptr, ptr %2, align 8, !tbaa !7
  %77 = getelementptr inbounds nuw %struct.Odc_Man_t_, ptr %76, i32 0, i32 35
  %78 = load i64, ptr %77, align 8, !tbaa !74
  %79 = sitofp i64 %78 to double
  %80 = fmul double 1.000000e+00, %79
  %81 = fdiv double %80, 1.000000e+06
  call void (i32, ptr, ...) @Abc_Print(i32 noundef 1, ptr noundef @.str.5, double noundef %81)
  call void (i32, ptr, ...) @Abc_Print(i32 noundef 1, ptr noundef @.str.3, ptr noundef @.str.11)
  %82 = load ptr, ptr %2, align 8, !tbaa !7
  %83 = getelementptr inbounds nuw %struct.Odc_Man_t_, ptr %82, i32 0, i32 36
  %84 = load i64, ptr %83, align 8, !tbaa !75
  %85 = sitofp i64 %84 to double
  %86 = fmul double 1.000000e+00, %85
  %87 = fdiv double %86, 1.000000e+06
  call void (i32, ptr, ...) @Abc_Print(i32 noundef 1, ptr noundef @.str.5, double noundef %87)
  call void (i32, ptr, ...) @Abc_Print(i32 noundef 1, ptr noundef @.str.3, ptr noundef @.str.12)
  %88 = load ptr, ptr %2, align 8, !tbaa !7
  %89 = getelementptr inbounds nuw %struct.Odc_Man_t_, ptr %88, i32 0, i32 37
  %90 = load i64, ptr %89, align 8, !tbaa !76
  %91 = sitofp i64 %90 to double
  %92 = fmul double 1.000000e+00, %91
  %93 = fdiv double %92, 1.000000e+06
  call void (i32, ptr, ...) @Abc_Print(i32 noundef 1, ptr noundef @.str.5, double noundef %93)
  br label %94

94:                                               ; preds = %7, %1
  %95 = load ptr, ptr %2, align 8, !tbaa !7
  %96 = getelementptr inbounds nuw %struct.Odc_Man_t_, ptr %95, i32 0, i32 8
  %97 = load ptr, ptr %96, align 8, !tbaa !25
  call void @Vec_PtrFree(ptr noundef %97)
  %98 = load ptr, ptr %2, align 8, !tbaa !7
  %99 = getelementptr inbounds nuw %struct.Odc_Man_t_, ptr %98, i32 0, i32 9
  %100 = load ptr, ptr %99, align 8, !tbaa !26
  call void @Vec_PtrFree(ptr noundef %100)
  %101 = load ptr, ptr %2, align 8, !tbaa !7
  %102 = getelementptr inbounds nuw %struct.Odc_Man_t_, ptr %101, i32 0, i32 21
  %103 = load ptr, ptr %102, align 8, !tbaa !40
  call void @Vec_PtrFree(ptr noundef %103)
  %104 = load ptr, ptr %2, align 8, !tbaa !7
  %105 = getelementptr inbounds nuw %struct.Odc_Man_t_, ptr %104, i32 0, i32 22
  %106 = load ptr, ptr %105, align 8, !tbaa !41
  call void @Vec_PtrFree(ptr noundef %106)
  %107 = load ptr, ptr %2, align 8, !tbaa !7
  %108 = getelementptr inbounds nuw %struct.Odc_Man_t_, ptr %107, i32 0, i32 18
  %109 = load ptr, ptr %108, align 8, !tbaa !37
  call void @Vec_IntFree(ptr noundef %109)
  %110 = load ptr, ptr %2, align 8, !tbaa !7
  %111 = getelementptr inbounds nuw %struct.Odc_Man_t_, ptr %110, i32 0, i32 13
  %112 = load ptr, ptr %111, align 8, !tbaa !28
  %113 = icmp ne ptr %112, null
  br i1 %113, label %114, label %120

114:                                              ; preds = %94
  %115 = load ptr, ptr %2, align 8, !tbaa !7
  %116 = getelementptr inbounds nuw %struct.Odc_Man_t_, ptr %115, i32 0, i32 13
  %117 = load ptr, ptr %116, align 8, !tbaa !28
  call void @free(ptr noundef %117) #10
  %118 = load ptr, ptr %2, align 8, !tbaa !7
  %119 = getelementptr inbounds nuw %struct.Odc_Man_t_, ptr %118, i32 0, i32 13
  store ptr null, ptr %119, align 8, !tbaa !28
  br label %121

120:                                              ; preds = %94
  br label %121

121:                                              ; preds = %120, %114
  %122 = load ptr, ptr %2, align 8, !tbaa !7
  %123 = getelementptr inbounds nuw %struct.Odc_Man_t_, ptr %122, i32 0, i32 16
  %124 = load ptr, ptr %123, align 8, !tbaa !36
  %125 = icmp ne ptr %124, null
  br i1 %125, label %126, label %132

126:                                              ; preds = %121
  %127 = load ptr, ptr %2, align 8, !tbaa !7
  %128 = getelementptr inbounds nuw %struct.Odc_Man_t_, ptr %127, i32 0, i32 16
  %129 = load ptr, ptr %128, align 8, !tbaa !36
  call void @free(ptr noundef %129) #10
  %130 = load ptr, ptr %2, align 8, !tbaa !7
  %131 = getelementptr inbounds nuw %struct.Odc_Man_t_, ptr %130, i32 0, i32 16
  store ptr null, ptr %131, align 8, !tbaa !36
  br label %133

132:                                              ; preds = %121
  br label %133

133:                                              ; preds = %132, %126
  %134 = load ptr, ptr %2, align 8, !tbaa !7
  %135 = icmp ne ptr %134, null
  br i1 %135, label %136, label %138

136:                                              ; preds = %133
  %137 = load ptr, ptr %2, align 8, !tbaa !7
  call void @free(ptr noundef %137) #10
  store ptr null, ptr %2, align 8, !tbaa !7
  br label %139

138:                                              ; preds = %133
  br label %139

139:                                              ; preds = %138, %136
  ret void
}