; Function Attrs: nounwind uwtable
define void @Abc_NtkDontCareFree(ptr noundef captures(none) %0) local_unnamed_addr #0 {
  %2 = getelementptr inbounds nuw i8, ptr %0, i64 8
  %3 = load i32, ptr %2, align 8, !tbaa !18
  %.not = icmp eq i32 %3, 0
  br i1 %.not, label %58, label %4

4:                                                ; preds = %1
  %5 = getelementptr inbounds nuw i8, ptr %0, i64 144
  %6 = load i32, ptr %5, align 8, !tbaa !60
  %7 = getelementptr inbounds nuw i8, ptr %0, i64 148
  %8 = load i32, ptr %7, align 4, !tbaa !61
  %9 = getelementptr inbounds nuw i8, ptr %0, i64 152
  %10 = load i32, ptr %9, align 8, !tbaa !62
  %11 = getelementptr inbounds nuw i8, ptr %0, i64 156
  %12 = load i32, ptr %11, align 4, !tbaa !63
  %13 = getelementptr inbounds nuw i8, ptr %0, i64 160
  %14 = load i32, ptr %13, align 8, !tbaa !64
  %15 = tail call i32 (ptr, ...) @printf(ptr noundef nonnull dereferenceable(1) @.str, i32 noundef %6, i32 noundef %8, i32 noundef %10, i32 noundef %12, i32 noundef %14)
  %16 = getelementptr inbounds nuw i8, ptr %0, i64 164
  %17 = load i32, ptr %16, align 4, !tbaa !65
  %18 = sitofp i32 %17 to double
  %19 = load i32, ptr %5, align 8, !tbaa !60
  %20 = sitofp i32 %19 to double
  %21 = fdiv double %18, %20
  %22 = load i32, ptr %13, align 8, !tbaa !64
  %23 = sitofp i32 %22 to double
  %24 = fdiv double %18, %23
  %25 = tail call i32 (ptr, ...) @printf(ptr noundef nonnull dereferenceable(1) @.str.1, double noundef %21, double noundef %24)
  %puts = tail call i32 @puts(ptr nonnull dereferenceable(1) @str)
  tail call void (i32, ptr, ...) @Abc_Print(i32 poison, ptr noundef nonnull @.str.3, ptr noundef nonnull @.str.4)
  %26 = getelementptr inbounds nuw i8, ptr %0, i64 168
  %27 = load i64, ptr %26, align 8, !tbaa !59
  %28 = sitofp i64 %27 to double
  %29 = fdiv double %28, 1.000000e+06
  tail call void (i32, ptr, ...) @Abc_Print(i32 poison, ptr noundef nonnull @.str.5, double noundef %29)
  tail call void (i32, ptr, ...) @Abc_Print(i32 poison, ptr noundef nonnull @.str.3, ptr noundef nonnull @.str.6)
  %30 = getelementptr inbounds nuw i8, ptr %0, i64 176
  %31 = load i64, ptr %30, align 8, !tbaa !66
  %32 = sitofp i64 %31 to double
  %33 = fdiv double %32, 1.000000e+06
  tail call void (i32, ptr, ...) @Abc_Print(i32 poison, ptr noundef nonnull @.str.5, double noundef %33)
  tail call void (i32, ptr, ...) @Abc_Print(i32 poison, ptr noundef nonnull @.str.3, ptr noundef nonnull @.str.7)
  %34 = getelementptr inbounds nuw i8, ptr %0, i64 184
  %35 = load i64, ptr %34, align 8, !tbaa !67
  %36 = sitofp i64 %35 to double
  %37 = fdiv double %36, 1.000000e+06
  tail call void (i32, ptr, ...) @Abc_Print(i32 poison, ptr noundef nonnull @.str.5, double noundef %37)
  tail call void (i32, ptr, ...) @Abc_Print(i32 poison, ptr noundef nonnull @.str.3, ptr noundef nonnull @.str.8)
  %38 = getelementptr inbounds nuw i8, ptr %0, i64 192
  %39 = load i64, ptr %38, align 8, !tbaa !68
  %40 = sitofp i64 %39 to double
  %41 = fdiv double %40, 1.000000e+06
  tail call void (i32, ptr, ...) @Abc_Print(i32 poison, ptr noundef nonnull @.str.5, double noundef %41)
  tail call void (i32, ptr, ...) @Abc_Print(i32 poison, ptr noundef nonnull @.str.3, ptr noundef nonnull @.str.9)
  %42 = getelementptr inbounds nuw i8, ptr %0, i64 200
  %43 = load i64, ptr %42, align 8, !tbaa !69
  %44 = sitofp i64 %43 to double
  %45 = fdiv double %44, 1.000000e+06
  tail call void (i32, ptr, ...) @Abc_Print(i32 poison, ptr noundef nonnull @.str.5, double noundef %45)
  tail call void (i32, ptr, ...) @Abc_Print(i32 poison, ptr noundef nonnull @.str.3, ptr noundef nonnull @.str.10)
  %46 = getelementptr inbounds nuw i8, ptr %0, i64 208
  %47 = load i64, ptr %46, align 8, !tbaa !70
  %48 = sitofp i64 %47 to double
  %49 = fdiv double %48, 1.000000e+06
  tail call void (i32, ptr, ...) @Abc_Print(i32 poison, ptr noundef nonnull @.str.5, double noundef %49)
  tail call void (i32, ptr, ...) @Abc_Print(i32 poison, ptr noundef nonnull @.str.3, ptr noundef nonnull @.str.11)
  %50 = getelementptr inbounds nuw i8, ptr %0, i64 216
  %51 = load i64, ptr %50, align 8, !tbaa !71
  %52 = sitofp i64 %51 to double
  %53 = fdiv double %52, 1.000000e+06
  tail call void (i32, ptr, ...) @Abc_Print(i32 poison, ptr noundef nonnull @.str.5, double noundef %53)
  tail call void (i32, ptr, ...) @Abc_Print(i32 poison, ptr noundef nonnull @.str.3, ptr noundef nonnull @.str.12)
  %54 = getelementptr inbounds nuw i8, ptr %0, i64 224
  %55 = load i64, ptr %54, align 8, !tbaa !72
  %56 = sitofp i64 %55 to double
  %57 = fdiv double %56, 1.000000e+06
  tail call void (i32, ptr, ...) @Abc_Print(i32 poison, ptr noundef nonnull @.str.5, double noundef %57)
  br label %58

58:                                               ; preds = %4, %1
  %59 = getelementptr inbounds nuw i8, ptr %0, i64 40
  %60 = load ptr, ptr %59, align 8, !tbaa !25
  %61 = getelementptr inbounds nuw i8, ptr %60, i64 8
  %62 = load ptr, ptr %61, align 8, !tbaa !24
  %.not.i = icmp eq ptr %62, null
  br i1 %.not.i, label %Vec_PtrFree.exit, label %63

63:                                               ; preds = %58
  tail call void @free(ptr noundef nonnull %62) #19
  br label %Vec_PtrFree.exit

Vec_PtrFree.exit:                                 ; preds = %58, %63
  tail call void @free(ptr noundef nonnull %60) #19
  %64 = getelementptr inbounds nuw i8, ptr %0, i64 48
  %65 = load ptr, ptr %64, align 8, !tbaa !26
  %66 = getelementptr inbounds nuw i8, ptr %65, i64 8
  %67 = load ptr, ptr %66, align 8, !tbaa !24
  %.not.i36 = icmp eq ptr %67, null
  br i1 %.not.i36, label %Vec_PtrFree.exit37, label %68

68:                                               ; preds = %Vec_PtrFree.exit
  tail call void @free(ptr noundef nonnull %67) #19
  br label %Vec_PtrFree.exit37

Vec_PtrFree.exit37:                               ; preds = %Vec_PtrFree.exit, %68
  tail call void @free(ptr noundef nonnull %65) #19
  %69 = getelementptr inbounds nuw i8, ptr %0, i64 120
  %70 = load ptr, ptr %69, align 8, !tbaa !46
  %71 = getelementptr inbounds nuw i8, ptr %70, i64 8
  %72 = load ptr, ptr %71, align 8, !tbaa !24
  %.not.i38 = icmp eq ptr %72, null
  br i1 %.not.i38, label %Vec_PtrFree.exit39, label %73

73:                                               ; preds = %Vec_PtrFree.exit37
  tail call void @free(ptr noundef nonnull %72) #19
  br label %Vec_PtrFree.exit39

Vec_PtrFree.exit39:                               ; preds = %Vec_PtrFree.exit37, %73
  tail call void @free(ptr noundef nonnull %70) #19
  %74 = getelementptr inbounds nuw i8, ptr %0, i64 128
  %75 = load ptr, ptr %74, align 8, !tbaa !47
  %76 = getelementptr inbounds nuw i8, ptr %75, i64 8
  %77 = load ptr, ptr %76, align 8, !tbaa !24
  %.not.i40 = icmp eq ptr %77, null
  br i1 %.not.i40, label %Vec_PtrFree.exit41, label %78

78:                                               ; preds = %Vec_PtrFree.exit39
  tail call void @free(ptr noundef nonnull %77) #19
  br label %Vec_PtrFree.exit41

Vec_PtrFree.exit41:                               ; preds = %Vec_PtrFree.exit39, %78
  tail call void @free(ptr noundef nonnull %75) #19
  %79 = getelementptr inbounds nuw i8, ptr %0, i64 104
  %80 = load ptr, ptr %79, align 8, !tbaa !41
  %81 = getelementptr inbounds nuw i8, ptr %80, i64 8
  %82 = load ptr, ptr %81, align 8, !tbaa !40
  %.not.i42 = icmp eq ptr %82, null
  br i1 %.not.i42, label %Vec_IntFree.exit, label %83

83:                                               ; preds = %Vec_PtrFree.exit41
  tail call void @free(ptr noundef nonnull %82) #19
  br label %Vec_IntFree.exit

Vec_IntFree.exit:                                 ; preds = %Vec_PtrFree.exit41, %83
  tail call void @free(ptr noundef nonnull %80) #19
  %84 = getelementptr inbounds nuw i8, ptr %0, i64 72
  %85 = load ptr, ptr %84, align 8, !tbaa !28
  %.not33 = icmp eq ptr %85, null
  br i1 %.not33, label %87, label %86

86:                                               ; preds = %Vec_IntFree.exit
  tail call void @free(ptr noundef nonnull %85) #19
  store ptr null, ptr %84, align 8, !tbaa !28
  br label %87

87:                                               ; preds = %Vec_IntFree.exit, %86
  %88 = getelementptr inbounds nuw i8, ptr %0, i64 88
  %89 = load ptr, ptr %88, align 8, !tbaa !36
  %.not34 = icmp eq ptr %89, null
  br i1 %.not34, label %91, label %90

90:                                               ; preds = %87
  tail call void @free(ptr noundef nonnull %89) #19
  br label %91

91:                                               ; preds = %87, %90
  tail call void @free(ptr noundef nonnull %0) #19
  ret void
}